; Function Attrs: mustprogress nofree norecurse nosync nounwind willreturn memory(read, inaccessiblemem: none) uwtable
define noundef zeroext i1 @_ZNK10open_spiel10backgammon15BackgammonState10IsTerminalEv(ptr nocapture noundef nonnull readonly align 8 dereferenceable(216) %0) unnamed_addr #9 align 2 {
  %2 = getelementptr inbounds nuw i8, ptr %0, i64 144
  %3 = load ptr, ptr %2, align 8
  %4 = load i32, ptr %3, align 4
  %5 = getelementptr inbounds nuw i8, ptr %0, i64 8
  %6 = load ptr, ptr %5, align 8
  %7 = getelementptr i8, ptr %6, i64 284
  %.val1 = load i8, ptr %7, align 4
  %8 = trunc i8 %.val1 to i1
  %..i.i = select i1 %8, i32 3, i32 15
  %9 = icmp eq i32 %4, %..i.i
  br i1 %9, label %14, label %10

10:                                               ; preds = %1
  %11 = getelementptr inbounds i8, ptr %3, i64 4
  %12 = load i32, ptr %11, align 4
  %13 = icmp eq i32 %12, %..i.i
  br label %14

14:                                               ; preds = %10, %1
  %15 = phi i1 [ true, %1 ], [ %13, %10 ]
  ret i1 %15
}